target datalayout = "e-m:e-p270:32:32-p271:32:32-p272:64:64-i64:64-i128:128-f80:128-n8:16:32:64-S128"
target triple = "x86_64-pc-linux-gnu"

@.str.24 = private unnamed_addr constant [28 x i8] c"../openssl/test/test_test.c\00", align 1
@stderr = external global ptr, align 8
@.str.47 = private unnamed_addr constant [19 x i8] c"# FATAL: %s != %d\0A\00", align 1
@.str.209 = private unnamed_addr constant [5 x i8] c"NULL\00", align 1
@.str.276 = private unnamed_addr constant [2 x i8] c"a\00", align 1
@.str.290 = private unnamed_addr constant [2 x i8] c"b\00", align 1
@.str.291 = private unnamed_addr constant [2 x i8] c"c\00", align 1
@.str.292 = private unnamed_addr constant [17 x i8] c"TEST_BN_eq(a, b)\00", align 1
@__const.test_long_bignum.bs = private unnamed_addr constant [111 x i8] c"12345678901234567890123456789012345678901234567890121234567890123456789012345678901234567890123456789013987657\00", align 16
@__const.test_long_bignum.cs = private unnamed_addr constant [66 x i8] c"-123456789012345678901234567890123456789012345678901234567890ABCD\00", align 16
@__const.test_long_bignum.ds = private unnamed_addr constant [65 x i8] c"-23456789A123456789B123456789C123456789D123456789E123456789FABCD\00", align 16
@.str.338 = private unnamed_addr constant [18 x i8] c"BN_hex2bn(&a, as)\00", align 1
@.str.339 = private unnamed_addr constant [18 x i8] c"BN_hex2bn(&b, bs)\00", align 1
@.str.340 = private unnamed_addr constant [18 x i8] c"BN_hex2bn(&c, cs)\00", align 1
@.str.341 = private unnamed_addr constant [18 x i8] c"BN_hex2bn(&d, ds)\00", align 1
@.str.342 = private unnamed_addr constant [17 x i8] c"TEST_BN_eq(b, a)\00", align 1
@.str.343 = private unnamed_addr constant [20 x i8] c"TEST_BN_eq(b, NULL)\00", align 1
@.str.344 = private unnamed_addr constant [20 x i8] c"TEST_BN_eq(NULL, a)\00", align 1
@.str.345 = private unnamed_addr constant [20 x i8] c"TEST_BN_ne(a, NULL)\00", align 1
@.str.346 = private unnamed_addr constant [17 x i8] c"TEST_BN_eq(c, d)\00", align 1
@.str.347 = private unnamed_addr constant [2 x i8] c"d\00", align 1

; Function Attrs: nounwind uwtable
define internal i32 @test_case(i32 noundef %0, ptr noundef %1, i32 noundef %2) #0 {
  %4 = alloca i32, align 4
  %5 = alloca i32, align 4
  %6 = alloca ptr, align 8
  %7 = alloca i32, align 4
  store i32 %0, ptr %5, align 4, !tbaa !4
  store ptr %1, ptr %6, align 8, !tbaa !9
  store i32 %2, ptr %7, align 4, !tbaa !4
  %8 = load i32, ptr %7, align 4, !tbaa !4
  %9 = load i32, ptr %5, align 4, !tbaa !4
  %10 = icmp ne i32 %8, %9
  br i1 %10, label %11, label %16

11:                                               ; preds = %3
  %12 = load ptr, ptr @stderr, align 8, !tbaa !16
  %13 = load ptr, ptr %6, align 8, !tbaa !9
  %14 = load i32, ptr %5, align 4, !tbaa !4
  %15 = call i32 (ptr, ptr, ...) @fprintf(ptr noundef %12, ptr noundef @.str.47, ptr noundef %13, i32 noundef %14) #7
  store i32 0, ptr %4, align 4
  br label %17

16:                                               ; preds = %3
  store i32 1, ptr %4, align 4
  br label %17

17:                                               ; preds = %16, %11
  %18 = load i32, ptr %4, align 4
  ret i32 %18
}

; Function Attrs: nounwind uwtable
define internal i32 @test_long_bignum() #0 {
  %1 = alloca i32, align 4
  %2 = alloca ptr, align 8
  %3 = alloca ptr, align 8
  %4 = alloca ptr, align 8
  %5 = alloca ptr, align 8
  %6 = alloca [319 x i8], align 16
  %7 = alloca [111 x i8], align 16
  %8 = alloca [66 x i8], align 16
  %9 = alloca [65 x i8], align 16
  call void @llvm.lifetime.start.p0(i64 4, ptr %1) #7
  call void @llvm.lifetime.start.p0(i64 8, ptr %2) #7
  store ptr null, ptr %2, align 8, !tbaa !12
  call void @llvm.lifetime.start.p0(i64 8, ptr %3) #7
  store ptr null, ptr %3, align 8, !tbaa !12
  call void @llvm.lifetime.start.p0(i64 8, ptr %4) #7
  store ptr null, ptr %4, align 8, !tbaa !12
  call void @llvm.lifetime.start.p0(i64 8, ptr %5) #7
  store ptr null, ptr %5, align 8, !tbaa !12
  call void @llvm.lifetime.start.p0(i64 319, ptr %6) #7
  call void @llvm.memcpy.p0.p0.i64(ptr align 16 %6, ptr align 16 @__const.test_long_bignum.as, i64 319, i1 false)
  call void @llvm.lifetime.start.p0(i64 111, ptr %7) #7
  call void @llvm.memcpy.p0.p0.i64(ptr align 16 %7, ptr align 16 @__const.test_long_bignum.bs, i64 111, i1 false)
  call void @llvm.lifetime.start.p0(i64 66, ptr %8) #7
  call void @llvm.memcpy.p0.p0.i64(ptr align 16 %8, ptr align 16 @__const.test_long_bignum.cs, i64 66, i1 false)
  call void @llvm.lifetime.start.p0(i64 65, ptr %9) #7
  call void @llvm.memcpy.p0.p0.i64(ptr align 16 %9, ptr align 16 @__const.test_long_bignum.ds, i64 65, i1 false)
  %10 = getelementptr inbounds [319 x i8], ptr %6, i64 0, i64 0
  %11 = call i32 @BN_hex2bn(ptr noundef %2, ptr noundef %10)
  %12 = icmp ne i32 %11, 0
  %13 = zext i1 %12 to i32
  %14 = call i32 @test_true(ptr noundef @.str.24, i32 noundef 424, ptr noundef @.str.338, i32 noundef %13)
  %15 = icmp ne i32 %14, 0
  br i1 %15, label %16, label %65

16:                                               ; preds = %0
  %17 = getelementptr inbounds [111 x i8], ptr %7, i64 0, i64 0
  %18 = call i32 @BN_hex2bn(ptr noundef %3, ptr noundef %17)
  %19 = icmp ne i32 %18, 0
  %20 = zext i1 %19 to i32
  %21 = call i32 @test_true(ptr noundef @.str.24, i32 noundef 425, ptr noundef @.str.339, i32 noundef %20)
  %22 = icmp ne i32 %21, 0
  br i1 %22, label %23, label %65

23:                                               ; preds = %16
  %24 = getelementptr inbounds [66 x i8], ptr %8, i64 0, i64 0
  %25 = call i32 @BN_hex2bn(ptr noundef %4, ptr noundef %24)
  %26 = icmp ne i32 %25, 0
  %27 = zext i1 %26 to i32
  %28 = call i32 @test_true(ptr noundef @.str.24, i32 noundef 426, ptr noundef @.str.340, i32 noundef %27)
  %29 = icmp ne i32 %28, 0
  br i1 %29, label %30, label %65

30:                                               ; preds = %23
  %31 = getelementptr inbounds [65 x i8], ptr %9, i64 0, i64 0
  %32 = call i32 @BN_hex2bn(ptr noundef %5, ptr noundef %31)
  %33 = icmp ne i32 %32, 0
  %34 = zext i1 %33 to i32
  %35 = call i32 @test_true(ptr noundef @.str.24, i32 noundef 427, ptr noundef @.str.341, i32 noundef %34)
  %36 = icmp ne i32 %35, 0
  br i1 %36, label %37, label %65

37:                                               ; preds = %30
  %38 = load ptr, ptr %2, align 8, !tbaa !12
  %39 = load ptr, ptr %3, align 8, !tbaa !12
  %40 = call i32 @test_BN_eq(ptr noundef @.str.24, i32 noundef 428, ptr noundef @.str.276, ptr noundef @.str.290, ptr noundef %38, ptr noundef %39)
  %41 = call i32 @test_case(i32 noundef 0, ptr noundef @.str.292, i32 noundef %40)
  %42 = load ptr, ptr %3, align 8, !tbaa !12
  %43 = load ptr, ptr %2, align 8, !tbaa !12
  %44 = call i32 @test_BN_eq(ptr noundef @.str.24, i32 noundef 429, ptr noundef @.str.290, ptr noundef @.str.276, ptr noundef %42, ptr noundef %43)
  %45 = call i32 @test_case(i32 noundef 0, ptr noundef @.str.342, i32 noundef %44)
  %46 = and i32 %41, %45
  %47 = load ptr, ptr %3, align 8, !tbaa !12
  %48 = call i32 @test_BN_eq(ptr noundef @.str.24, i32 noundef 430, ptr noundef @.str.290, ptr noundef @.str.209, ptr noundef %47, ptr noundef null)
  %49 = call i32 @test_case(i32 noundef 0, ptr noundef @.str.343, i32 noundef %48)
  %50 = and i32 %46, %49
  %51 = load ptr, ptr %2, align 8, !tbaa !12
  %52 = call i32 @test_BN_eq(ptr noundef @.str.24, i32 noundef 431, ptr noundef @.str.209, ptr noundef @.str.276, ptr noundef null, ptr noundef %51)
  %53 = call i32 @test_case(i32 noundef 0, ptr noundef @.str.344, i32 noundef %52)
  %54 = and i32 %50, %53
  %55 = load ptr, ptr %2, align 8, !tbaa !12
  %56 = call i32 @test_BN_ne(ptr noundef @.str.24, i32 noundef 432, ptr noundef @.str.276, ptr noundef @.str.209, ptr noundef %55, ptr noundef null)
  %57 = call i32 @test_case(i32 noundef 1, ptr noundef @.str.345, i32 noundef %56)
  %58 = and i32 %54, %57
  %59 = load ptr, ptr %4, align 8, !tbaa !12
  %60 = load ptr, ptr %5, align 8, !tbaa !12
  %61 = call i32 @test_BN_eq(ptr noundef @.str.24, i32 noundef 433, ptr noundef @.str.291, ptr noundef @.str.347, ptr noundef %59, ptr noundef %60)
  %62 = call i32 @test_case(i32 noundef 0, ptr noundef @.str.346, i32 noundef %61)
  %63 = and i32 %58, %62
  %64 = icmp ne i32 %63, 0
  br label %65

65:                                               ; preds = %37, %30, %23, %16, %0
  %66 = phi i1 [ false, %30 ], [ false, %23 ], [ false, %16 ], [ false, %0 ], [ %64, %37 ]
  %67 = zext i1 %66 to i32
  store i32 %67, ptr %1, align 4, !tbaa !4
  %68 = load ptr, ptr %2, align 8, !tbaa !12
  call void @BN_free(ptr noundef %68)
  %69 = load ptr, ptr %3, align 8, !tbaa !12
  call void @BN_free(ptr noundef %69)
  %70 = load ptr, ptr %4, align 8, !tbaa !12
  call void @BN_free(ptr noundef %70)
  %71 = load ptr, ptr %5, align 8, !tbaa !12
  call void @BN_free(ptr noundef %71)
  %72 = load i32, ptr %1, align 4, !tbaa !4
  call void @llvm.lifetime.end.p0(i64 65, ptr %9) #7
  call void @llvm.lifetime.end.p0(i64 66, ptr %8) #7
  call void @llvm.lifetime.end.p0(i64 111, ptr %7) #7
  call void @llvm.lifetime.end.p0(i64 319, ptr %6) #7
  call void @llvm.lifetime.end.p0(i64 8, ptr %5) #7
  call void @llvm.lifetime.end.p0(i64 8, ptr %4) #7
  call void @llvm.lifetime.end.p0(i64 8, ptr %3) #7
  call void @llvm.lifetime.end.p0(i64 8, ptr %2) #7
  call void @llvm.lifetime.end.p0(i64 4, ptr %1) #7
  ret i32 %72
}