; Function Attrs: nounwind uwtable
define internal range(i32 0, 2) i32 @test_long_bignum() #0 {
  %1 = alloca ptr, align 8
  %2 = alloca ptr, align 8
  %3 = alloca ptr, align 8
  %4 = alloca ptr, align 8
  %5 = alloca [319 x i8], align 16
  %6 = alloca [111 x i8], align 16
  %7 = alloca [66 x i8], align 16
  %8 = alloca [65 x i8], align 16
  call void @llvm.lifetime.start.p0(i64 8, ptr nonnull %1) #5
  store ptr null, ptr %1, align 8, !tbaa !12
  call void @llvm.lifetime.start.p0(i64 8, ptr nonnull %2) #5
  store ptr null, ptr %2, align 8, !tbaa !12
  call void @llvm.lifetime.start.p0(i64 8, ptr nonnull %3) #5
  store ptr null, ptr %3, align 8, !tbaa !12
  call void @llvm.lifetime.start.p0(i64 8, ptr nonnull %4) #5
  store ptr null, ptr %4, align 8, !tbaa !12
  call void @llvm.lifetime.start.p0(i64 319, ptr nonnull %5) #5
  call void @llvm.memcpy.p0.p0.i64(ptr noundef nonnull align 16 dereferenceable(319) %5, ptr noundef nonnull align 16 dereferenceable(319) @__const.test_long_bignum.as, i64 319, i1 false)
  call void @llvm.lifetime.start.p0(i64 111, ptr nonnull %6) #5
  call void @llvm.memcpy.p0.p0.i64(ptr noundef nonnull align 16 dereferenceable(111) %6, ptr noundef nonnull align 16 dereferenceable(111) @.str.411, i64 111, i1 false)
  call void @llvm.lifetime.start.p0(i64 66, ptr nonnull %7) #5
  call void @llvm.memcpy.p0.p0.i64(ptr noundef nonnull align 16 dereferenceable(66) %7, ptr noundef nonnull align 16 dereferenceable(66) @__const.test_long_bignum.cs, i64 66, i1 false)
  call void @llvm.lifetime.start.p0(i64 65, ptr nonnull %8) #5
  call void @llvm.memcpy.p0.p0.i64(ptr noundef nonnull align 16 dereferenceable(65) %8, ptr noundef nonnull align 16 dereferenceable(65) @__const.test_long_bignum.ds, i64 65, i1 false)
  %9 = call i32 @BN_hex2bn(ptr noundef nonnull %1, ptr noundef nonnull %5) #5
  %10 = icmp ne i32 %9, 0
  %11 = zext i1 %10 to i32
  %12 = call i32 @test_true(ptr noundef nonnull @.str.24, i32 noundef 424, ptr noundef nonnull @.str.338, i32 noundef %11) #5
  %.not = icmp eq i32 %12, 0
  br i1 %.not, label %67, label %13

13:                                               ; preds = %0
  %14 = call i32 @BN_hex2bn(ptr noundef nonnull %2, ptr noundef nonnull %6) #5
  %15 = icmp ne i32 %14, 0
  %16 = zext i1 %15 to i32
  %17 = call i32 @test_true(ptr noundef nonnull @.str.24, i32 noundef 425, ptr noundef nonnull @.str.339, i32 noundef %16) #5
  %.not1 = icmp eq i32 %17, 0
  br i1 %.not1, label %67, label %18

18:                                               ; preds = %13
  %19 = call i32 @BN_hex2bn(ptr noundef nonnull %3, ptr noundef nonnull %7) #5
  %20 = icmp ne i32 %19, 0
  %21 = zext i1 %20 to i32
  %22 = call i32 @test_true(ptr noundef nonnull @.str.24, i32 noundef 426, ptr noundef nonnull @.str.340, i32 noundef %21) #5
  %.not2 = icmp eq i32 %22, 0
  br i1 %.not2, label %67, label %23

23:                                               ; preds = %18
  %24 = call i32 @BN_hex2bn(ptr noundef nonnull %4, ptr noundef nonnull %8) #5
  %25 = icmp ne i32 %24, 0
  %26 = zext i1 %25 to i32
  %27 = call i32 @test_true(ptr noundef nonnull @.str.24, i32 noundef 427, ptr noundef nonnull @.str.341, i32 noundef %26) #5
  %.not3 = icmp eq i32 %27, 0
  br i1 %.not3, label %67, label %28

28:                                               ; preds = %23
  %29 = load ptr, ptr %1, align 8, !tbaa !12
  %30 = load ptr, ptr %2, align 8, !tbaa !12
  %31 = call i32 @test_BN_eq(ptr noundef nonnull @.str.24, i32 noundef 428, ptr noundef nonnull @.str.276, ptr noundef nonnull @.str.290, ptr noundef %29, ptr noundef %30) #5
  %.not.i = icmp eq i32 %31, 0
  br i1 %.not.i, label %test_case.exit, label %32

32:                                               ; preds = %28
  %33 = load ptr, ptr @stderr, align 8, !tbaa !4
  %34 = call i32 (ptr, ptr, ...) @fprintf(ptr noundef %33, ptr noundef nonnull @.str.47, ptr noundef nonnull @.str.292, i32 noundef 0) #6
  br label %test_case.exit

test_case.exit:                                   ; preds = %28, %32
  %.0.i = phi i32 [ 0, %32 ], [ 1, %28 ]
  %35 = load ptr, ptr %2, align 8, !tbaa !12
  %36 = load ptr, ptr %1, align 8, !tbaa !12
  %37 = call i32 @test_BN_eq(ptr noundef nonnull @.str.24, i32 noundef 429, ptr noundef nonnull @.str.290, ptr noundef nonnull @.str.276, ptr noundef %35, ptr noundef %36) #5
  %.not.i4 = icmp eq i32 %37, 0
  br i1 %.not.i4, label %test_case.exit6, label %38

38:                                               ; preds = %test_case.exit
  %39 = load ptr, ptr @stderr, align 8, !tbaa !4
  %40 = call i32 (ptr, ptr, ...) @fprintf(ptr noundef %39, ptr noundef nonnull @.str.47, ptr noundef nonnull @.str.342, i32 noundef 0) #6
  br label %test_case.exit6

test_case.exit6:                                  ; preds = %test_case.exit, %38
  %.0.i5 = phi i32 [ 0, %38 ], [ 1, %test_case.exit ]
  %41 = and i32 %.0.i5, %.0.i
  %42 = load ptr, ptr %2, align 8, !tbaa !12
  %43 = call i32 @test_BN_eq(ptr noundef nonnull @.str.24, i32 noundef 430, ptr noundef nonnull @.str.290, ptr noundef nonnull @.str.209, ptr noundef %42, ptr noundef null) #5
  %.not.i7 = icmp eq i32 %43, 0
  br i1 %.not.i7, label %test_case.exit9, label %44

44:                                               ; preds = %test_case.exit6
  %45 = load ptr, ptr @stderr, align 8, !tbaa !4
  %46 = call i32 (ptr, ptr, ...) @fprintf(ptr noundef %45, ptr noundef nonnull @.str.47, ptr noundef nonnull @.str.343, i32 noundef 0) #6
  br label %test_case.exit9

test_case.exit9:                                  ; preds = %test_case.exit6, %44
  %.0.i8 = phi i32 [ 0, %44 ], [ 1, %test_case.exit6 ]
  %47 = and i32 %41, %.0.i8
  %48 = load ptr, ptr %1, align 8, !tbaa !12
  %49 = call i32 @test_BN_eq(ptr noundef nonnull @.str.24, i32 noundef 431, ptr noundef nonnull @.str.209, ptr noundef nonnull @.str.276, ptr noundef null, ptr noundef %48) #5
  %.not.i10 = icmp eq i32 %49, 0
  br i1 %.not.i10, label %test_case.exit12, label %50

50:                                               ; preds = %test_case.exit9
  %51 = load ptr, ptr @stderr, align 8, !tbaa !4
  %52 = call i32 (ptr, ptr, ...) @fprintf(ptr noundef %51, ptr noundef nonnull @.str.47, ptr noundef nonnull @.str.344, i32 noundef 0) #6
  br label %test_case.exit12

test_case.exit12:                                 ; preds = %test_case.exit9, %50
  %.0.i11 = phi i32 [ 0, %50 ], [ 1, %test_case.exit9 ]
  %53 = and i32 %47, %.0.i11
  %54 = load ptr, ptr %1, align 8, !tbaa !12
  %55 = call i32 @test_BN_ne(ptr noundef nonnull @.str.24, i32 noundef 432, ptr noundef nonnull @.str.276, ptr noundef nonnull @.str.209, ptr noundef %54, ptr noundef null) #5
  %.not.i13 = icmp eq i32 %55, 1
  br i1 %.not.i13, label %test_case.exit15, label %56

56:                                               ; preds = %test_case.exit12
  %57 = load ptr, ptr @stderr, align 8, !tbaa !4
  %58 = call i32 (ptr, ptr, ...) @fprintf(ptr noundef %57, ptr noundef nonnull @.str.47, ptr noundef nonnull @.str.345, i32 noundef 1) #6
  br label %test_case.exit15

test_case.exit15:                                 ; preds = %test_case.exit12, %56
  %.0.i14 = phi i32 [ 0, %56 ], [ 1, %test_case.exit12 ]
  %59 = and i32 %53, %.0.i14
  %60 = load ptr, ptr %3, align 8, !tbaa !12
  %61 = load ptr, ptr %4, align 8, !tbaa !12
  %62 = call i32 @test_BN_eq(ptr noundef nonnull @.str.24, i32 noundef 433, ptr noundef nonnull @.str.291, ptr noundef nonnull @.str.347, ptr noundef %60, ptr noundef %61) #5
  %.not.i16 = icmp eq i32 %62, 0
  br i1 %.not.i16, label %test_case.exit18, label %63

63:                                               ; preds = %test_case.exit15
  %64 = load ptr, ptr @stderr, align 8, !tbaa !4
  %65 = call i32 (ptr, ptr, ...) @fprintf(ptr noundef %64, ptr noundef nonnull @.str.47, ptr noundef nonnull @.str.346, i32 noundef 0) #6
  br label %test_case.exit18

test_case.exit18:                                 ; preds = %test_case.exit15, %63
  %.0.i17 = phi i32 [ 0, %63 ], [ 1, %test_case.exit15 ]
  %66 = and i32 %59, %.0.i17
  br label %67

67:                                               ; preds = %test_case.exit18, %23, %18, %13, %0
  %68 = phi i32 [ 0, %23 ], [ 0, %18 ], [ 0, %13 ], [ 0, %0 ], [ %66, %test_case.exit18 ]
  %69 = load ptr, ptr %1, align 8, !tbaa !12
  call void @BN_free(ptr noundef %69) #5
  %70 = load ptr, ptr %2, align 8, !tbaa !12
  call void @BN_free(ptr noundef %70) #5
  %71 = load ptr, ptr %3, align 8, !tbaa !12
  call void @BN_free(ptr noundef %71) #5
  %72 = load ptr, ptr %4, align 8, !tbaa !12
  call void @BN_free(ptr noundef %72) #5
  call void @llvm.lifetime.end.p0(i64 65, ptr nonnull %8) #5
  call void @llvm.lifetime.end.p0(i64 66, ptr nonnull %7) #5
  call void @llvm.lifetime.end.p0(i64 111, ptr nonnull %6) #5
  call void @llvm.lifetime.end.p0(i64 319, ptr nonnull %5) #5
  call void @llvm.lifetime.end.p0(i64 8, ptr nonnull %4) #5
  call void @llvm.lifetime.end.p0(i64 8, ptr nonnull %3) #5
  call void @llvm.lifetime.end.p0(i64 8, ptr nonnull %2) #5
  call void @llvm.lifetime.end.p0(i64 8, ptr nonnull %1) #5
  ret i32 %68
}